target datalayout = "e-m:e-p270:32:32-p271:32:32-p272:64:64-i64:64-i128:128-f80:128-n8:16:32:64-S128"
target triple = "x86_64-pc-linux-gnu"

%struct.nghttp2_session = type { %struct.nghttp2_map, %struct.nghttp2_stream, %struct.nghttp2_outbound_queue, %struct.nghttp2_outbound_queue, %struct.nghttp2_outbound_queue, [8 x %struct.anon], %struct.nghttp2_active_outbound_item, %struct.nghttp2_inbound_frame, %struct.nghttp2_hd_deflater, %struct.nghttp2_hd_inflater, %struct.nghttp2_session_callbacks, %struct.nghttp2_mem, ptr, ptr, ptr, ptr, ptr, ptr, i64, i64, i64, i64, i64, i64, i64, i64, i64, i64, i64, i64, i32, i32, i32, i32, i32, i32, i32, i32, i32, i32, i32, i32, i8, %struct.nghttp2_settings_storage, %struct.nghttp2_settings_storage, i32, i32, i32, i8, i8, i8, i8, i8, i8, i8, [32 x i8] }
%struct.nghttp2_map = type { ptr, ptr, i64, i32, i32 }
%struct.nghttp2_stream = type { %struct.nghttp2_pq_entry, %struct.nghttp2_pq, i64, i64, i64, i64, i64, i64, ptr, ptr, ptr, ptr, ptr, ptr, ptr, ptr, i64, i32, i32, i32, i32, i32, i32, i32, i32, i32, i32, i16, i32, i8, i8, i8, i8, i8, i8 }
%struct.nghttp2_pq_entry = type { i64 }
%struct.nghttp2_pq = type { ptr, ptr, i64, i64, ptr }
%struct.nghttp2_outbound_queue = type { ptr, ptr, i64 }
%struct.anon = type { %struct.nghttp2_pq }
%struct.nghttp2_active_outbound_item = type { ptr, %struct.nghttp2_bufs, i32 }
%struct.nghttp2_bufs = type { ptr, ptr, ptr, i64, i64, i64, i64, i64 }
%struct.nghttp2_inbound_frame = type { %union.nghttp2_frame, %union.nghttp2_ext_frame_payload, ptr, %struct.nghttp2_buf, %struct.nghttp2_buf, ptr, i64, i64, i64, i64, i32, [32 x i8] }
%union.nghttp2_frame = type { %struct.nghttp2_headers }
%struct.nghttp2_headers = type { %struct.nghttp2_frame_hd, i64, %struct.nghttp2_priority_spec, ptr, i64, i32 }
%struct.nghttp2_frame_hd = type { i64, i32, i8, i8, i8 }
%struct.nghttp2_priority_spec = type { i32, i32, i8 }
%union.nghttp2_ext_frame_payload = type { %struct.nghttp2_ext_altsvc }
%struct.nghttp2_ext_altsvc = type { ptr, i64, ptr, i64 }
%struct.nghttp2_buf = type { ptr, ptr, ptr, ptr, ptr }
%struct.nghttp2_hd_deflater = type { %struct.nghttp2_hd_context, %struct.nghttp2_hd_map, i64, i64, i8 }
%struct.nghttp2_hd_context = type { %struct.nghttp2_hd_ringbuf, ptr, i64, i64, i32, i8 }
%struct.nghttp2_hd_ringbuf = type { ptr, i64, i64, i64 }
%struct.nghttp2_hd_map = type { [128 x ptr] }
%struct.nghttp2_hd_inflater = type { %struct.nghttp2_hd_context, %struct.nghttp2_hd_huff_decode_context, %struct.nghttp2_buf, %struct.nghttp2_buf, ptr, ptr, ptr, ptr, i64, i64, i64, i64, i64, i32, i32, i8, i8, i8 }
%struct.nghttp2_hd_huff_decode_context = type { i16 }
%struct.nghttp2_session_callbacks = type { ptr, ptr, ptr, ptr, ptr, ptr, ptr, ptr, ptr, ptr, ptr, ptr, ptr, ptr, ptr, ptr, ptr, ptr, ptr, ptr, ptr, ptr, ptr }
%struct.nghttp2_mem = type { ptr, ptr, ptr, ptr, ptr }
%struct.nghttp2_settings_storage = type { i32, i32, i32, i32, i32, i32, i32, i32 }
%struct.nghttp2_outbound_item = type { %union.nghttp2_frame, %union.nghttp2_ext_frame_payload, %union.nghttp2_aux_data, i64, ptr, i8 }
%union.nghttp2_aux_data = type { %struct.nghttp2_headers_aux_data }
%struct.nghttp2_headers_aux_data = type { %struct.nghttp2_data_provider, ptr, i32, i8 }
%struct.nghttp2_data_provider = type { %union.nghttp2_data_source, ptr }
%union.nghttp2_data_source = type { ptr }

; Function Attrs: nounwind uwtable
define internal void @session_sched_reschedule_stream(ptr noundef %0, ptr noundef %1) #0 {
  %3 = alloca ptr, align 8
  %4 = alloca ptr, align 8
  %5 = alloca ptr, align 8
  %6 = alloca i32, align 4
  %7 = alloca i32, align 4
  %8 = alloca i64, align 8
  %9 = alloca i32, align 4
  %10 = alloca i32, align 4
  store ptr %0, ptr %3, align 8, !tbaa !8
  store ptr %1, ptr %4, align 8, !tbaa !46
  call void @llvm.lifetime.start.p0(i64 8, ptr %5) #9
  call void @llvm.lifetime.start.p0(i64 4, ptr %6) #9
  %11 = load ptr, ptr %4, align 8, !tbaa !46
  %12 = getelementptr inbounds nuw %struct.nghttp2_stream, ptr %11, i32 0, i32 33
  %13 = load i8, ptr %12, align 4, !tbaa !232
  %14 = zext i8 %13 to i32
  %15 = and i32 %14, -129
  store i32 %15, ptr %6, align 4, !tbaa !4
  call void @llvm.lifetime.start.p0(i64 4, ptr %7) #9
  %16 = load ptr, ptr %4, align 8, !tbaa !46
  %17 = getelementptr inbounds nuw %struct.nghttp2_stream, ptr %16, i32 0, i32 33
  %18 = load i8, ptr %17, align 4, !tbaa !232
  %19 = zext i8 %18 to i32
  %20 = and i32 %19, 128
  %21 = icmp ne i32 %20, 0
  %22 = zext i1 %21 to i32
  store i32 %22, ptr %7, align 4, !tbaa !4
  call void @llvm.lifetime.start.p0(i64 8, ptr %8) #9
  %23 = load ptr, ptr %4, align 8, !tbaa !46
  %24 = getelementptr inbounds nuw %struct.nghttp2_stream, ptr %23, i32 0, i32 16
  %25 = load i64, ptr %24, align 8, !tbaa !277
  store i64 %25, ptr %8, align 8, !tbaa !44
  call void @llvm.lifetime.start.p0(i64 4, ptr %9) #9
  %26 = load ptr, ptr %3, align 8, !tbaa !8
  %27 = getelementptr inbounds nuw %struct.nghttp2_session, ptr %26, i32 0, i32 5
  %28 = load i32, ptr %6, align 4, !tbaa !4
  %29 = zext i32 %28 to i64
  %30 = getelementptr inbounds nuw [8 x %struct.anon], ptr %27, i64 0, i64 %29
  %31 = getelementptr inbounds nuw %struct.anon, ptr %30, i32 0, i32 0
  store ptr %31, ptr %5, align 8, !tbaa !53
  %32 = load i32, ptr %7, align 4, !tbaa !4
  %33 = icmp ne i32 %32, 0
  br i1 %33, label %34, label %38

34:                                               ; preds = %2
  %35 = load ptr, ptr %5, align 8, !tbaa !53
  %36 = call i64 @nghttp2_pq_size(ptr noundef %35)
  %37 = icmp eq i64 %36, 1
  br i1 %37, label %38, label %39

38:                                               ; preds = %34, %2
  store i32 1, ptr %10, align 4
  br label %52

39:                                               ; preds = %34
  %40 = load ptr, ptr %5, align 8, !tbaa !53
  %41 = load ptr, ptr %4, align 8, !tbaa !46
  %42 = getelementptr inbounds nuw %struct.nghttp2_stream, ptr %41, i32 0, i32 0
  call void @nghttp2_pq_remove(ptr noundef %40, ptr noundef %42)
  %43 = load i64, ptr %8, align 8, !tbaa !44
  %44 = load ptr, ptr %4, align 8, !tbaa !46
  %45 = getelementptr inbounds nuw %struct.nghttp2_stream, ptr %44, i32 0, i32 5
  %46 = load i64, ptr %45, align 8, !tbaa !292
  %47 = add i64 %46, %43
  store i64 %47, ptr %45, align 8, !tbaa !292
  %48 = load ptr, ptr %5, align 8, !tbaa !53
  %49 = load ptr, ptr %4, align 8, !tbaa !46
  %50 = getelementptr inbounds nuw %struct.nghttp2_stream, ptr %49, i32 0, i32 0
  %51 = call i32 @nghttp2_pq_push(ptr noundef %48, ptr noundef %50)
  store i32 %51, ptr %9, align 4, !tbaa !4
  store i32 0, ptr %10, align 4
  br label %52

52:                                               ; preds = %39, %38
  call void @llvm.lifetime.end.p0(i64 4, ptr %9) #9
  call void @llvm.lifetime.end.p0(i64 8, ptr %8) #9
  call void @llvm.lifetime.end.p0(i64 4, ptr %7) #9
  call void @llvm.lifetime.end.p0(i64 4, ptr %6) #9
  call void @llvm.lifetime.end.p0(i64 8, ptr %5) #9
  %53 = load i32, ptr %10, align 4
  switch i32 %53, label %55 [
    i32 0, label %54
    i32 1, label %54
  ]

54:                                               ; preds = %52, %52
  ret void

55:                                               ; preds = %52
  unreachable
}

; Function Attrs: nounwind uwtable
define internal void @session_reschedule_stream(ptr noundef %0, ptr noundef %1) #0 {
  %3 = alloca ptr, align 8
  %4 = alloca ptr, align 8
  store ptr %0, ptr %3, align 8, !tbaa !8
  store ptr %1, ptr %4, align 8, !tbaa !46
  %5 = load ptr, ptr %4, align 8, !tbaa !46
  %6 = getelementptr inbounds nuw %struct.nghttp2_stream, ptr %5, i32 0, i32 15
  %7 = load ptr, ptr %6, align 8, !tbaa !105
  %8 = getelementptr inbounds nuw %struct.nghttp2_outbound_item, ptr %7, i32 0, i32 0
  %9 = getelementptr inbounds nuw %struct.nghttp2_frame_hd, ptr %8, i32 0, i32 0
  %10 = load i64, ptr %9, align 8, !tbaa !115
  %11 = load ptr, ptr %4, align 8, !tbaa !46
  %12 = getelementptr inbounds nuw %struct.nghttp2_stream, ptr %11, i32 0, i32 16
  store i64 %10, ptr %12, align 8, !tbaa !277
  %13 = load ptr, ptr %4, align 8, !tbaa !46
  %14 = getelementptr inbounds nuw %struct.nghttp2_stream, ptr %13, i32 0, i32 29
  %15 = load i8, ptr %14, align 8, !tbaa !47
  %16 = zext i8 %15 to i32
  %17 = and i32 %16, 16
  %18 = icmp ne i32 %17, 0
  br i1 %18, label %21, label %19

19:                                               ; preds = %2
  %20 = load ptr, ptr %4, align 8, !tbaa !46
  call void @nghttp2_stream_reschedule(ptr noundef %20)
  br label %30

21:                                               ; preds = %2
  %22 = load ptr, ptr %3, align 8, !tbaa !8
  %23 = getelementptr inbounds nuw %struct.nghttp2_session, ptr %22, i32 0, i32 52
  %24 = load i8, ptr %23, align 4, !tbaa !45
  %25 = icmp ne i8 %24, 0
  br i1 %25, label %27, label %26

26:                                               ; preds = %21
  br label %30

27:                                               ; preds = %21
  %28 = load ptr, ptr %3, align 8, !tbaa !8
  %29 = load ptr, ptr %4, align 8, !tbaa !46
  call void @session_sched_reschedule_stream(ptr noundef %28, ptr noundef %29)
  br label %30

30:                                               ; preds = %27, %26, %19
  ret void
}