; Function Attrs: nounwind uwtable
define internal fastcc void @session_reschedule_stream(ptr noundef %0, ptr noundef initializes((160, 168)) %1) unnamed_addr #1 {
  %3 = getelementptr inbounds nuw i8, ptr %1, i64 152
  %4 = load ptr, ptr %3, align 8, !tbaa !108
  %5 = load i64, ptr %4, align 8, !tbaa !111
  %6 = getelementptr inbounds nuw i8, ptr %1, i64 160
  store i64 %5, ptr %6, align 8, !tbaa !140
  %7 = getelementptr inbounds nuw i8, ptr %1, i64 216
  %8 = load i8, ptr %7, align 8, !tbaa !41
  %9 = and i8 %8, 16
  %.not = icmp eq i8 %9, 0
  br i1 %.not, label %10, label %11

10:                                               ; preds = %2
  tail call void @nghttp2_stream_reschedule(ptr noundef nonnull %1) #20
  br label %session_sched_reschedule_stream.exit

11:                                               ; preds = %2
  %12 = getelementptr inbounds nuw i8, ptr %0, i64 2844
  %13 = load i8, ptr %12, align 4, !tbaa !40
  %.not7 = icmp eq i8 %13, 0
  br i1 %.not7, label %session_sched_reschedule_stream.exit, label %14

14:                                               ; preds = %11
  %15 = getelementptr inbounds nuw i8, ptr %1, i64 220
  %16 = load i8, ptr %15, align 4, !tbaa !138
  %17 = and i8 %16, 127
  %.not.i = icmp sgt i8 %16, -1
  %18 = getelementptr inbounds nuw i8, ptr %0, i64 328
  %19 = zext nneg i8 %17 to i64
  %20 = getelementptr inbounds nuw [8 x %struct.anon], ptr %18, i64 0, i64 %19
  br i1 %.not.i, label %session_sched_reschedule_stream.exit, label %21

21:                                               ; preds = %14
  %22 = tail call i64 @nghttp2_pq_size(ptr noundef nonnull %20) #20
  %23 = icmp eq i64 %22, 1
  br i1 %23, label %session_sched_reschedule_stream.exit, label %24

24:                                               ; preds = %21
  tail call void @nghttp2_pq_remove(ptr noundef nonnull %20, ptr noundef nonnull %1) #20
  %25 = getelementptr inbounds nuw i8, ptr %1, i64 72
  %26 = load i64, ptr %25, align 8, !tbaa !139
  %27 = add i64 %26, %5
  store i64 %27, ptr %25, align 8, !tbaa !139
  %28 = tail call i32 @nghttp2_pq_push(ptr noundef nonnull %20, ptr noundef nonnull %1) #20
  br label %session_sched_reschedule_stream.exit

session_sched_reschedule_stream.exit:             ; preds = %24, %21, %14, %11, %10
  ret void
}